target datalayout = "e-m:e-p270:32:32-p271:32:32-p272:64:64-i64:64-i128:128-f80:128-n8:16:32:64-S128"
target triple = "x86_64-pc-linux-gnu"

%struct.decoration = type { ptr, i32, i32, ptr }
%struct.strbuf = type { i64, i64, ptr }
%struct.string_list = type { ptr, i64, i64, i8, ptr }
%struct.rev_info = type { ptr, %struct.object_array, ptr, %struct.object_array, %struct.rev_cmdline_info, %struct.list_objects_filter_options, %struct.ref_exclusions, ptr, ptr, ptr, %struct.pathspec, i32, i32, i32, i32, i64, i32, i32, %struct.date_mode, i32, i32, i32, i32, ptr, i32, i32, ptr, ptr, i32, ptr, ptr, %struct.ident_split, ptr, i32, ptr, ptr, ptr, i32, i32, i32, ptr, %struct.grep_opt, ptr, i32, i32, i64, i64, i64, i32, i32, ptr, ptr, ptr, %struct.diff_options, %struct.diff_options, ptr, %struct.decoration, %struct.decoration, %struct.decoration, %struct.display_notes_opt, ptr, ptr, ptr, ptr, ptr, i32, ptr, i32, i32, i32, %struct.decoration, ptr, ptr, ptr, ptr, ptr, ptr, ptr, i32, ptr, i32, ptr, %struct.oidset }
%struct.object_array = type { i32, i32, ptr }
%struct.rev_cmdline_info = type { i32, i32, ptr }
%struct.list_objects_filter_options = type { %struct.strbuf, i32, i8, ptr, i64, i64, i32, i64, i64, ptr }
%struct.ref_exclusions = type { %struct.string_list, %struct.strvec, i8 }
%struct.strvec = type { ptr, i64, i64 }
%struct.pathspec = type { i32, i8, i32, i32, ptr }
%struct.date_mode = type { i32, i32, ptr }
%struct.ident_split = type { ptr, ptr, ptr, ptr, ptr, ptr, ptr, ptr }
%struct.grep_opt = type { ptr, ptr, ptr, ptr, ptr, ptr, i32, i32, i32, i32, i32, i32, i32, i32, i32, i32, i32, i32, i32, i32, i32, i32, i32, i32, i32, i32, i32, i32, i32, i32, i32, i32, [9 x [75 x i8]], i32, i32, i32, i32, i32, i32, i32, ptr, ptr, ptr }
%struct.diff_options = type { ptr, ptr, i32, i32, ptr, i32, ptr, i64, i64, ptr, ptr, ptr, ptr, %struct.diff_flags, i32, i32, i32, i32, i32, i32, i32, i32, i32, i32, i32, i32, i32, i32, i32, i32, i32, i32, i32, i32, i32, i32, ptr, i32, ptr, i32, i32, ptr, i64, i64, i32, i32, i32, i32, ptr, i32, i32, ptr, i32, i32, ptr, ptr, i32, [3 x i8], %struct.pathspec, ptr, ptr, ptr, ptr, ptr, ptr, ptr, ptr, i32, ptr, i32, i32, ptr, ptr, i32 }
%struct.diff_flags = type { i32, i32, i32, i32, i32, i32, i32, i32, i32, i32, i32, i32, i32, i32, i32, i32, i32, i32, i32, i32, i32, i32, i32, i32, i32, i32, i32, i32, i32, i32, i32, i32, i32, i32, i32 }
%struct.display_notes_opt = type { i32, %struct.string_list }
%struct.oidset = type { %struct.kh_oid_set }
%struct.kh_oid_set = type { i32, i32, i32, i32, ptr, ptr, ptr }

@.str.11 = private unnamed_addr constant [24 x i8] c"Subject: [%s%s%0*d/%d] \00", align 1
@.str.12 = private unnamed_addr constant [2 x i8] c" \00", align 1
@.str.13 = private unnamed_addr constant [1 x i8] zeroinitializer, align 1
@.str.14 = private unnamed_addr constant [15 x i8] c"Subject: [%s] \00", align 1
@.str.15 = private unnamed_addr constant [10 x i8] c"Subject: \00", align 1

; Function Attrs: inlinehint nounwind uwtable
define internal void @strbuf_addstr(ptr noundef %0, ptr noundef %1) #2 {
  %3 = alloca ptr, align 8
  %4 = alloca ptr, align 8
  store ptr %0, ptr %3, align 8, !tbaa !57
  store ptr %1, ptr %4, align 8, !tbaa !9
  %5 = load ptr, ptr %3, align 8, !tbaa !57
  %6 = load ptr, ptr %4, align 8, !tbaa !9
  %7 = load ptr, ptr %4, align 8, !tbaa !9
  %8 = call i64 @strlen(ptr noundef %7) #11
  call void @strbuf_add(ptr noundef %5, ptr noundef %6, i64 noundef %8)
  ret void
}

; Function Attrs: nounwind uwtable
define dso_local void @fmt_output_email_subject(ptr noundef %0, ptr noundef %1) #0 {
  %3 = alloca ptr, align 8
  %4 = alloca ptr, align 8
  store ptr %0, ptr %3, align 8, !tbaa !57
  store ptr %1, ptr %4, align 8, !tbaa !71
  %5 = load ptr, ptr %4, align 8, !tbaa !71
  %6 = getelementptr inbounds nuw %struct.rev_info, ptr %5, i32 0, i32 25
  %7 = load i32, ptr %6, align 4, !tbaa !126
  %8 = icmp sgt i32 %7, 0
  br i1 %8, label %9, label %32

9:                                                ; preds = %2
  %10 = load ptr, ptr %3, align 8, !tbaa !57
  %11 = load ptr, ptr %4, align 8, !tbaa !71
  %12 = getelementptr inbounds nuw %struct.rev_info, ptr %11, i32 0, i32 36
  %13 = load ptr, ptr %12, align 8, !tbaa !127
  %14 = load ptr, ptr %4, align 8, !tbaa !71
  %15 = getelementptr inbounds nuw %struct.rev_info, ptr %14, i32 0, i32 36
  %16 = load ptr, ptr %15, align 8, !tbaa !127
  %17 = load i8, ptr %16, align 1, !tbaa !67
  %18 = sext i8 %17 to i32
  %19 = icmp ne i32 %18, 0
  %20 = select i1 %19, ptr @.str.12, ptr @.str.13
  %21 = load ptr, ptr %4, align 8, !tbaa !71
  %22 = getelementptr inbounds nuw %struct.rev_info, ptr %21, i32 0, i32 25
  %23 = load i32, ptr %22, align 4, !tbaa !126
  %24 = sext i32 %23 to i64
  %25 = call i32 @decimal_width(i64 noundef %24)
  %26 = load ptr, ptr %4, align 8, !tbaa !71
  %27 = getelementptr inbounds nuw %struct.rev_info, ptr %26, i32 0, i32 24
  %28 = load i32, ptr %27, align 8, !tbaa !121
  %29 = load ptr, ptr %4, align 8, !tbaa !71
  %30 = getelementptr inbounds nuw %struct.rev_info, ptr %29, i32 0, i32 25
  %31 = load i32, ptr %30, align 4, !tbaa !126
  call void (ptr, ptr, ...) @strbuf_addf(ptr noundef %10, ptr noundef @.str.11, ptr noundef %13, ptr noundef %20, i32 noundef %25, i32 noundef %28, i32 noundef %31)
  br label %57

32:                                               ; preds = %2
  %33 = load ptr, ptr %4, align 8, !tbaa !71
  %34 = getelementptr inbounds nuw %struct.rev_info, ptr %33, i32 0, i32 25
  %35 = load i32, ptr %34, align 4, !tbaa !126
  %36 = icmp eq i32 %35, 0
  br i1 %36, label %37, label %54

37:                                               ; preds = %32
  %38 = load ptr, ptr %4, align 8, !tbaa !71
  %39 = getelementptr inbounds nuw %struct.rev_info, ptr %38, i32 0, i32 36
  %40 = load ptr, ptr %39, align 8, !tbaa !127
  %41 = icmp ne ptr %40, null
  br i1 %41, label %42, label %54

42:                                               ; preds = %37
  %43 = load ptr, ptr %4, align 8, !tbaa !71
  %44 = getelementptr inbounds nuw %struct.rev_info, ptr %43, i32 0, i32 36
  %45 = load ptr, ptr %44, align 8, !tbaa !127
  %46 = load i8, ptr %45, align 1, !tbaa !67
  %47 = sext i8 %46 to i32
  %48 = icmp ne i32 %47, 0
  br i1 %48, label %49, label %54

49:                                               ; preds = %42
  %50 = load ptr, ptr %3, align 8, !tbaa !57
  %51 = load ptr, ptr %4, align 8, !tbaa !71
  %52 = getelementptr inbounds nuw %struct.rev_info, ptr %51, i32 0, i32 36
  %53 = load ptr, ptr %52, align 8, !tbaa !127
  call void (ptr, ptr, ...) @strbuf_addf(ptr noundef %50, ptr noundef @.str.14, ptr noundef %53)
  br label %56

54:                                               ; preds = %42, %37, %32
  %55 = load ptr, ptr %3, align 8, !tbaa !57
  call void @strbuf_addstr(ptr noundef %55, ptr noundef @.str.15)
  br label %56

56:                                               ; preds = %54, %49
  br label %57

57:                                               ; preds = %56, %9
  ret void
}