; Function Attrs: nounwind uwtable
define dso_local void @fmt_output_email_subject(ptr noundef %0, ptr noundef readonly captures(none) %1) local_unnamed_addr #0 {
  %3 = getelementptr inbounds nuw i8, ptr %1, i64 348
  %4 = load i32, ptr %3, align 4, !tbaa !104
  %5 = icmp sgt i32 %4, 0
  br i1 %5, label %6, label %16

6:                                                ; preds = %2
  %7 = getelementptr inbounds nuw i8, ptr %1, i64 488
  %8 = load ptr, ptr %7, align 8, !tbaa !105
  %9 = load i8, ptr %8, align 1, !tbaa !32
  %.not15 = icmp eq i8 %9, 0
  %10 = select i1 %.not15, ptr @.str.13, ptr @.str.12
  %11 = zext nneg i32 %4 to i64
  %12 = tail call i32 @decimal_width(i64 noundef %11) #15
  %13 = getelementptr inbounds nuw i8, ptr %1, i64 344
  %14 = load i32, ptr %13, align 8, !tbaa !99
  %15 = load i32, ptr %3, align 4, !tbaa !104
  tail call void (ptr, ptr, ...) @strbuf_addf(ptr noundef %0, ptr noundef nonnull @.str.11, ptr noundef nonnull %8, ptr noundef nonnull %10, i32 noundef %12, i32 noundef %14, i32 noundef %15) #15
  br label %25

16:                                               ; preds = %2
  %17 = icmp eq i32 %4, 0
  br i1 %17, label %18, label %24

18:                                               ; preds = %16
  %19 = getelementptr inbounds nuw i8, ptr %1, i64 488
  %20 = load ptr, ptr %19, align 8, !tbaa !105
  %.not = icmp eq ptr %20, null
  br i1 %.not, label %24, label %21

21:                                               ; preds = %18
  %22 = load i8, ptr %20, align 1, !tbaa !32
  %.not14 = icmp eq i8 %22, 0
  br i1 %.not14, label %24, label %23

23:                                               ; preds = %21
  tail call void (ptr, ptr, ...) @strbuf_addf(ptr noundef %0, ptr noundef nonnull @.str.14, ptr noundef nonnull %20) #15
  br label %25

24:                                               ; preds = %21, %18, %16
  tail call void @strbuf_add(ptr noundef %0, ptr noundef nonnull @.str.15, i64 noundef 9) #15
  br label %25

25:                                               ; preds = %23, %24, %6
  ret void
}